; Function Attrs: nounwind uwtable
define nonnull ptr @l_Array_qsort_sort___at_Lean_Compiler_LCNF_Probe_sortedBySize___spec__2___lambda__1___boxed(ptr noundef %0, ptr noundef %1) #0 {
  %3 = getelementptr inbounds nuw i8, ptr %0, i64 8
  %4 = load ptr, ptr %3, align 8, !tbaa !10
  %5 = getelementptr inbounds nuw i8, ptr %0, i64 16
  %6 = load ptr, ptr %5, align 8, !tbaa !10
  %7 = getelementptr inbounds nuw i8, ptr %1, i64 8
  %8 = load ptr, ptr %7, align 8, !tbaa !10
  %9 = getelementptr inbounds nuw i8, ptr %1, i64 16
  %10 = load ptr, ptr %9, align 8, !tbaa !10
  %11 = ptrtoint ptr %4 to i64
  %12 = and i64 %11, 1
  %.not.i8 = icmp eq i64 %12, 0
  br i1 %.not.i8, label %lean_nat_eq.exit.thread18.i, label %13, !prof !17

13:                                               ; preds = %2
  %14 = ptrtoint ptr %8 to i64
  %15 = and i64 %14, 1
  %.not20.i = icmp eq i64 %15, 0
  br i1 %.not20.i, label %lean_nat_eq.exit.i, label %lean_nat_eq.exit.thread.i, !prof !17

lean_nat_eq.exit.i:                               ; preds = %13
  %16 = tail call zeroext i1 @lean_nat_big_eq(ptr noundef %4, ptr noundef %8) #4
  br i1 %16, label %21, label %.critedge.i15.i

lean_nat_eq.exit.thread18.i:                      ; preds = %2
  %17 = tail call zeroext i1 @lean_nat_big_eq(ptr noundef %4, ptr noundef %8) #4
  br i1 %17, label %21, label %.critedge.i15.i

lean_nat_eq.exit.thread.i:                        ; preds = %13
  %.not21.i = icmp eq ptr %4, %8
  br i1 %.not21.i, label %21, label %.thread.i

.thread.i:                                        ; preds = %lean_nat_eq.exit.thread.i
  %18 = icmp ult ptr %4, %8
  br label %lean_nat_lt.exit.i

.critedge.i15.i:                                  ; preds = %lean_nat_eq.exit.thread18.i, %lean_nat_eq.exit.i
  %19 = tail call zeroext i1 @lean_nat_big_lt(ptr noundef %4, ptr noundef %8) #4
  br label %lean_nat_lt.exit.i

lean_nat_lt.exit.i:                               ; preds = %.critedge.i15.i, %.thread.i
  %.0.i16.i = phi i1 [ %18, %.thread.i ], [ %19, %.critedge.i15.i ]
  %20 = zext i1 %.0.i16.i to i8
  br label %l_Array_qsort_sort___at_Lean_Compiler_LCNF_Probe_sortedBySize___spec__2___lambda__1.exit

21:                                               ; preds = %lean_nat_eq.exit.thread.i, %lean_nat_eq.exit.thread18.i, %lean_nat_eq.exit.i
  %22 = getelementptr inbounds nuw i8, ptr %6, i64 8
  %23 = load ptr, ptr %22, align 8, !tbaa !10
  %24 = getelementptr inbounds nuw i8, ptr %10, i64 8
  %25 = load ptr, ptr %24, align 8, !tbaa !10
  %26 = tail call zeroext i8 @l_Lean_Name_lt(ptr noundef %23, ptr noundef %25) #4
  br label %l_Array_qsort_sort___at_Lean_Compiler_LCNF_Probe_sortedBySize___spec__2___lambda__1.exit

l_Array_qsort_sort___at_Lean_Compiler_LCNF_Probe_sortedBySize___spec__2___lambda__1.exit: ; preds = %lean_nat_lt.exit.i, %21
  %.0.i = phi i8 [ %20, %lean_nat_lt.exit.i ], [ %26, %21 ]
  %27 = ptrtoint ptr %1 to i64
  %28 = and i64 %27, 1
  %.not = icmp eq i64 %28, 0
  br i1 %.not, label %29, label %lean_dec.exit5

29:                                               ; preds = %l_Array_qsort_sort___at_Lean_Compiler_LCNF_Probe_sortedBySize___spec__2___lambda__1.exit
  %30 = load i32, ptr %1, align 4, !tbaa !4
  %31 = icmp sgt i32 %30, 1
  br i1 %31, label %32, label %34, !prof !9

32:                                               ; preds = %29
  %33 = add nsw i32 %30, -1
  store i32 %33, ptr %1, align 4, !tbaa !4
  br label %lean_dec.exit5

34:                                               ; preds = %29
  %.not.i = icmp eq i32 %30, 0
  br i1 %.not.i, label %lean_dec.exit5, label %35

35:                                               ; preds = %34
  tail call void @lean_dec_ref_cold(ptr noundef nonnull %1) #4
  br label %lean_dec.exit5

lean_dec.exit5:                                   ; preds = %35, %34, %32, %l_Array_qsort_sort___at_Lean_Compiler_LCNF_Probe_sortedBySize___spec__2___lambda__1.exit
  %36 = ptrtoint ptr %0 to i64
  %37 = and i64 %36, 1
  %.not9 = icmp eq i64 %37, 0
  br i1 %.not9, label %38, label %lean_dec.exit

38:                                               ; preds = %lean_dec.exit5
  %39 = load i32, ptr %0, align 4, !tbaa !4
  %40 = icmp sgt i32 %39, 1
  br i1 %40, label %41, label %43, !prof !9

41:                                               ; preds = %38
  %42 = add nsw i32 %39, -1
  store i32 %42, ptr %0, align 4, !tbaa !4
  br label %lean_dec.exit

43:                                               ; preds = %38
  %.not.i6 = icmp eq i32 %39, 0
  br i1 %.not.i6, label %lean_dec.exit, label %44

44:                                               ; preds = %43
  tail call void @lean_dec_ref_cold(ptr noundef nonnull %0) #4
  br label %lean_dec.exit

lean_dec.exit:                                    ; preds = %44, %43, %41, %lean_dec.exit5
  %45 = zext i8 %.0.i to i64
  %46 = shl nuw nsw i64 %45, 1
  %47 = or disjoint i64 %46, 1
  %48 = inttoptr i64 %47 to ptr
  ret ptr %48
}